
There are no discarded input sections

Memory Configuration

Name             Origin             Length             Attributes
*default*        0x00000000         0xffffffff

Linker script and memory map

LOAD temp/objects/start.o
LOAD temp/objects/kernel.o
LOAD temp/objects/uart.o
LOAD temp/objects/palloc.o
LOAD temp/objects/kmalloc.o
LOAD temp/objects/ramfs.o
LOAD temp/objects/lib.o
LOAD temp/objects/syscall.o
LOAD temp/objects/init.o
LOAD temp/objects/programs.o
LOAD temp/objects/echo.o
LOAD temp/objects/help.o
LOAD temp/objects/touch.o
LOAD temp/objects/write.o
LOAD temp/objects/cat.o
LOAD temp/objects/ls.o
LOAD temp/objects/rm.o
LOAD temp/objects/mkdir.o
LOAD temp/objects/rmdir.o
LOAD temp/objects/cp.o
LOAD temp/objects/mv.o
LOAD temp/objects/grep.o
LOAD temp/objects/head.o
LOAD temp/objects/tail.o
LOAD temp/objects/more.o
LOAD temp/objects/tree.o
LOAD temp/objects/shell.o
LOAD temp/objects/sched.o
LOAD temp/objects/panic.o
                0x40000000                        . = 0x40000000

.text           0x40000000     0x84ac
 *(.text.boot)
 .text.boot     0x40000000       0x34 temp/objects/start.o
                0x40000000                _start
 *(.text .text.*)
 .text          0x40000034        0x0 temp/objects/start.o
 .text          0x40000034       0x48 temp/objects/kernel.o
                0x40000034                kernel_main
 .text          0x4000007c      0x1fc temp/objects/uart.o
                0x400000d4                uart_putc
                0x40000130                uart_puts
                0x400001a0                uart_getc
                0x400001f8                uart_haschar
                0x4000023c                panic
 .text          0x40000278      0x198 temp/objects/palloc.o
                0x40000278                palloc_init
                0x40000320                palloc_alloc
                0x400003ac                palloc_free
 .text          0x40000410      0x1f0 temp/objects/kmalloc.o
                0x40000410                kmalloc_init
                0x4000049c                kmalloc
                0x400005a0                kfree
 .text          0x40000600      0xba4 temp/objects/ramfs.o
                0x40000600                ramfs_init
                0x400006ac                ramfs_create
                0x40000774                ramfs_mkdir
                0x400008bc                ramfs_write
                0x400009cc                ramfs_read
                0x40000a8c                ramfs_list
                0x40000e24                ramfs_is_dir
                0x40000f38                ramfs_remove
 .text          0x400011a4      0x7c4 temp/objects/lib.o
                0x400011a4                memset
                0x40001208                memcpy
                0x4000127c                strncpy
                0x40001344                strncmp
                0x40001414                strlen
                0x40001468                strcmp
                0x400014e8                strchr
                0x40001554                strstr
                0x4000162c                strcpy
                0x4000168c                strtok
                0x4000184c                atoi
 .text          0x40001968      0x3e4 temp/objects/syscall.o
                0x40001968                syscall_init
                0x400019c0                syscall_register
                0x40001a10                syscall_handle
                0x40001cbc                syscall_register_defaults
 .text          0x40001d4c      0x354 temp/objects/init.o
                0x40001d4c                init_puts
                0x40001d88                init_ramfs_create
                0x40001dc8                init_ramfs_read
                0x40001e10                init_ramfs_remove
                0x40001e50                init_ramfs_mkdir
                0x40001e90                init_ramfs_list
                0x40001ed8                init_ramfs_write
                0x40002044                init_start_shell
                0x40002074                init_main
 .text          0x400020a0      0x170 temp/objects/programs.o
                0x400020a0                program_lookup
                0x40002150                program_list
 .text          0x40002210      0x15c temp/objects/echo.o
                0x40002210                prog_echo
 .text          0x4000236c      0x114 temp/objects/help.o
                0x4000236c                prog_help
 .text          0x40002480       0xfc temp/objects/touch.o
                0x40002480                prog_touch
 .text          0x4000257c      0x278 temp/objects/write.o
                0x4000257c                prog_write
 .text          0x400027f4      0x100 temp/objects/cat.o
                0x400027f4                prog_cat
 .text          0x400028f4       0xbc temp/objects/ls.o
                0x400028f4                prog_ls
 .text          0x400029b0       0xfc temp/objects/rm.o
                0x400029b0                prog_rm
 .text          0x40002aac       0xfc temp/objects/mkdir.o
                0x40002aac                prog_mkdir
 .text          0x40002ba8       0xfc temp/objects/rmdir.o
                0x40002ba8                prog_rmdir
 .text          0x40002ca4      0x1d0 temp/objects/cp.o
                0x40002ca4                prog_cp
 .text          0x40002e74      0x1f0 temp/objects/mv.o
                0x40002e74                prog_mv
 .text          0x40003064      0x4a8 temp/objects/grep.o
                0x40003178                prog_grep
 .text          0x4000350c      0x2e8 temp/objects/head.o
                0x4000350c                prog_head
 .text          0x400037f4      0x34c temp/objects/tail.o
                0x400037f4                prog_tail
 .text          0x40003b40      0x348 temp/objects/more.o
                0x40003b40                prog_more
 .text          0x40003e88      0x3fc temp/objects/tree.o
                0x40004204                prog_tree
 .text          0x40004284     0x363c temp/objects/shell.o
                0x40007570                shell_main
 .text          0x400078c0      0xa14 temp/objects/sched.o
                0x400078c0                scheduler_init
                0x4000790c                task_create
                0x40007bcc                schedule
                0x40007cf4                yield
                0x40007d18                task_exists
                0x40007db4                task_kill
                0x40007f98                task_current_id
                0x40007fdc                task_set_fn_null
                0x40008084                task_stats
                0x40008208                task_list
 .text          0x400082d4      0x1d8 temp/objects/panic.o
                0x400083e0                panic_with_trace

.glue_7         0x400084ac        0x0
 .glue_7        0x400084ac        0x0 linker stubs

.glue_7t        0x400084ac        0x0
 .glue_7t       0x400084ac        0x0 linker stubs

.vfp11_veneer   0x400084ac        0x0
 .vfp11_veneer  0x400084ac        0x0 linker stubs

.v4_bx          0x400084ac        0x0
 .v4_bx         0x400084ac        0x0 linker stubs

.iplt           0x400084ac        0x0
 .iplt          0x400084ac        0x0 temp/objects/start.o

.rodata         0x400084ac      0x3ec
 *(.rodata .rodata.*)
 .rodata        0x400084ac       0x1d temp/objects/uart.o
 *fill*         0x400084c9        0x3 
 .rodata        0x400084cc        0x2 temp/objects/ramfs.o
 *fill*         0x400084ce        0x2 
 .rodata        0x400084d0       0x1a temp/objects/init.o
 *fill*         0x400084ea        0x2 
 .rodata        0x400084ec       0x69 temp/objects/programs.o
 *fill*         0x40008555        0x3 
 .rodata        0x40008558       0x22 temp/objects/touch.o
 *fill*         0x4000857a        0x2 
 .rodata        0x4000857c       0x2a temp/objects/write.o
 *fill*         0x400085a6        0x2 
 .rodata        0x400085a8       0x1a temp/objects/cat.o
 *fill*         0x400085c2        0x2 
 .rodata        0x400085c4        0x6 temp/objects/ls.o
 *fill*         0x400085ca        0x2 
 .rodata        0x400085cc       0x1e temp/objects/rm.o
 *fill*         0x400085ea        0x2 
 .rodata        0x400085ec       0x22 temp/objects/mkdir.o
 *fill*         0x4000860e        0x2 
 .rodata        0x40008610       0x22 temp/objects/rmdir.o
 *fill*         0x40008632        0x2 
 .rodata        0x40008634       0x24 temp/objects/cp.o
 .rodata        0x40008658       0x24 temp/objects/mv.o
 .rodata        0x4000867c       0x1e temp/objects/grep.o
 *fill*         0x4000869a        0x2 
 .rodata        0x4000869c        0x2 temp/objects/tree.o
 *fill*         0x4000869e        0x2 
 .rodata        0x400086a0      0x1b9 temp/objects/shell.o
 *fill*         0x40008859        0x3 
 .rodata        0x4000885c        0x5 temp/objects/sched.o
 *fill*         0x40008861        0x3 
 .rodata        0x40008864       0x34 temp/objects/panic.o

.rel.dyn        0x40008898        0x0
 .rel.iplt      0x40008898        0x0 temp/objects/start.o

.data           0x40008898       0xe4
 *(.data .data.*)
 .data          0x40008898        0x0 temp/objects/start.o
 .data          0x40008898        0x0 temp/objects/kernel.o
 .data          0x40008898        0x0 temp/objects/uart.o
 .data          0x40008898        0x0 temp/objects/palloc.o
 .data          0x40008898        0x0 temp/objects/kmalloc.o
 .data          0x40008898        0x0 temp/objects/ramfs.o
 .data          0x40008898        0x0 temp/objects/lib.o
 .data          0x40008898        0x0 temp/objects/syscall.o
 .data          0x40008898        0x0 temp/objects/init.o
 .data          0x40008898       0x88 temp/objects/programs.o
 .data          0x40008920        0x0 temp/objects/echo.o
 .data          0x40008920        0x0 temp/objects/help.o
 .data          0x40008920        0x0 temp/objects/touch.o
 .data          0x40008920        0x0 temp/objects/write.o
 .data          0x40008920        0x0 temp/objects/cat.o
 .data          0x40008920        0x0 temp/objects/ls.o
 .data          0x40008920        0x0 temp/objects/rm.o
 .data          0x40008920        0x0 temp/objects/mkdir.o
 .data          0x40008920        0x0 temp/objects/rmdir.o
 .data          0x40008920        0x0 temp/objects/cp.o
 .data          0x40008920        0x0 temp/objects/mv.o
 .data          0x40008920        0x0 temp/objects/grep.o
 .data          0x40008920        0x0 temp/objects/head.o
 .data          0x40008920        0x0 temp/objects/tail.o
 .data          0x40008920        0x0 temp/objects/more.o
 .data          0x40008920        0x0 temp/objects/tree.o
 .data          0x40008920       0x58 temp/objects/shell.o
 .data          0x40008978        0x4 temp/objects/sched.o
 .data          0x4000897c        0x0 temp/objects/panic.o

.igot.plt       0x4000897c        0x0
 .igot.plt      0x4000897c        0x0 temp/objects/start.o

.bss            0x4000897c    0x14168
                0x4000897c                        __bss_start = .
 *(.bss .bss.*)
 .bss           0x4000897c        0x0 temp/objects/start.o
 .bss           0x4000897c    0x10000 temp/objects/kernel.o
 .bss           0x4001897c        0x0 temp/objects/uart.o
 .bss           0x4001897c     0x4008 temp/objects/palloc.o
 .bss           0x4001c984        0x4 temp/objects/kmalloc.o
 .bss           0x4001c988        0x4 temp/objects/ramfs.o
 .bss           0x4001c98c        0x4 temp/objects/lib.o
 .bss           0x4001c990      0x100 temp/objects/syscall.o
 .bss           0x4001ca90        0x0 temp/objects/init.o
 .bss           0x4001ca90       0x40 temp/objects/programs.o
 .bss           0x4001cad0        0x0 temp/objects/echo.o
 .bss           0x4001cad0        0x0 temp/objects/help.o
 .bss           0x4001cad0        0x0 temp/objects/touch.o
 .bss           0x4001cad0        0x0 temp/objects/write.o
 .bss           0x4001cad0        0x0 temp/objects/cat.o
 .bss           0x4001cad0        0x0 temp/objects/ls.o
 .bss           0x4001cad0        0x0 temp/objects/rm.o
 .bss           0x4001cad0        0x0 temp/objects/mkdir.o
 .bss           0x4001cad0        0x0 temp/objects/rmdir.o
 .bss           0x4001cad0        0x0 temp/objects/cp.o
 .bss           0x4001cad0        0x0 temp/objects/mv.o
 .bss           0x4001cad0        0x0 temp/objects/grep.o
 .bss           0x4001cad0        0x0 temp/objects/head.o
 .bss           0x4001cad0        0x0 temp/objects/tail.o
 .bss           0x4001cad0        0x0 temp/objects/more.o
 .bss           0x4001cad0        0x0 temp/objects/tree.o
 .bss           0x4001cad0        0x4 temp/objects/shell.o
                0x4001cad0                shell_sigint
 .bss           0x4001cad4       0x10 temp/objects/sched.o
 .bss           0x4001cae4        0x0 temp/objects/panic.o
 *(COMMON)
                0x4001cae4                        __bss_end = .
                0x4001cae8                        . = ALIGN (0x8)
                0x40020ae8                        . = (. + 0x4000)
                0x40020ae8                        stack_top = .
OUTPUT(temp/elfs/kernel.elf elf32-littlearm)
LOAD linker stubs

.ARM.attributes
                0x00000000       0x31
 .ARM.attributes
                0x00000000       0x23 temp/objects/start.o
 .ARM.attributes
                0x00000023       0x35 temp/objects/kernel.o
 .ARM.attributes
                0x00000058       0x35 temp/objects/uart.o
 .ARM.attributes
                0x0000008d       0x35 temp/objects/palloc.o
 .ARM.attributes
                0x000000c2       0x35 temp/objects/kmalloc.o
 .ARM.attributes
                0x000000f7       0x35 temp/objects/ramfs.o
 .ARM.attributes
                0x0000012c       0x35 temp/objects/lib.o
 .ARM.attributes
                0x00000161       0x35 temp/objects/syscall.o
 .ARM.attributes
                0x00000196       0x35 temp/objects/init.o
 .ARM.attributes
                0x000001cb       0x35 temp/objects/programs.o
 .ARM.attributes
                0x00000200       0x35 temp/objects/echo.o
 .ARM.attributes
                0x00000235       0x35 temp/objects/help.o
 .ARM.attributes
                0x0000026a       0x35 temp/objects/touch.o
 .ARM.attributes
                0x0000029f       0x35 temp/objects/write.o
 .ARM.attributes
                0x000002d4       0x35 temp/objects/cat.o
 .ARM.attributes
                0x00000309       0x35 temp/objects/ls.o
 .ARM.attributes
                0x0000033e       0x35 temp/objects/rm.o
 .ARM.attributes
                0x00000373       0x35 temp/objects/mkdir.o
 .ARM.attributes
                0x000003a8       0x35 temp/objects/rmdir.o
 .ARM.attributes
                0x000003dd       0x35 temp/objects/cp.o
 .ARM.attributes
                0x00000412       0x35 temp/objects/mv.o
 .ARM.attributes
                0x00000447       0x35 temp/objects/grep.o
 .ARM.attributes
                0x0000047c       0x35 temp/objects/head.o
 .ARM.attributes
                0x000004b1       0x35 temp/objects/tail.o
 .ARM.attributes
                0x000004e6       0x35 temp/objects/more.o
 .ARM.attributes
                0x0000051b       0x35 temp/objects/tree.o
 .ARM.attributes
                0x00000550       0x35 temp/objects/shell.o
 .ARM.attributes
                0x00000585       0x35 temp/objects/sched.o
 .ARM.attributes
                0x000005ba       0x35 temp/objects/panic.o

.comment        0x00000000       0x12
 .comment       0x00000000       0x12 temp/objects/kernel.o
                                 0x13 (size before relaxing)
 .comment       0x00000012       0x13 temp/objects/uart.o
 .comment       0x00000012       0x13 temp/objects/palloc.o
 .comment       0x00000012       0x13 temp/objects/kmalloc.o
 .comment       0x00000012       0x13 temp/objects/ramfs.o
 .comment       0x00000012       0x13 temp/objects/lib.o
 .comment       0x00000012       0x13 temp/objects/syscall.o
 .comment       0x00000012       0x13 temp/objects/init.o
 .comment       0x00000012       0x13 temp/objects/programs.o
 .comment       0x00000012       0x13 temp/objects/echo.o
 .comment       0x00000012       0x13 temp/objects/help.o
 .comment       0x00000012       0x13 temp/objects/touch.o
 .comment       0x00000012       0x13 temp/objects/write.o
 .comment       0x00000012       0x13 temp/objects/cat.o
 .comment       0x00000012       0x13 temp/objects/ls.o
 .comment       0x00000012       0x13 temp/objects/rm.o
 .comment       0x00000012       0x13 temp/objects/mkdir.o
 .comment       0x00000012       0x13 temp/objects/rmdir.o
 .comment       0x00000012       0x13 temp/objects/cp.o
 .comment       0x00000012       0x13 temp/objects/mv.o
 .comment       0x00000012       0x13 temp/objects/grep.o
 .comment       0x00000012       0x13 temp/objects/head.o
 .comment       0x00000012       0x13 temp/objects/tail.o
 .comment       0x00000012       0x13 temp/objects/more.o
 .comment       0x00000012       0x13 temp/objects/tree.o
 .comment       0x00000012       0x13 temp/objects/shell.o
 .comment       0x00000012       0x13 temp/objects/sched.o
 .comment       0x00000012       0x13 temp/objects/panic.o
